target datalayout = "e-m:e-p270:32:32-p271:32:32-p272:64:64-i64:64-i128:128-f80:128-n8:16:32:64-S128"
target triple = "x86_64-pc-linux-gnu"

%struct.SurfaceDataRasInfo = type { %struct.SurfaceDataBounds, ptr, i32, i32, i32, i32, ptr, ptr, ptr, ptr, ptr, ptr, i32, %union.anon.0 }
%struct.SurfaceDataBounds = type { i32, i32, i32, i32 }
%union.anon.0 = type { ptr, [56 x i8] }

; Function Attrs: nounwind uwtable
define hidden zeroext i8 @checkSameLut(ptr noundef %0, ptr noundef %1, ptr noundef %2, ptr noundef %3) #0 {
  %5 = alloca i8, align 1
  %6 = alloca ptr, align 8
  %7 = alloca ptr, align 8
  %8 = alloca ptr, align 8
  %9 = alloca ptr, align 8
  %10 = alloca i32, align 4
  %11 = alloca i32, align 4
  store ptr %0, ptr %6, align 8
  store ptr %1, ptr %7, align 8
  store ptr %2, ptr %8, align 8
  store ptr %3, ptr %9, align 8
  %12 = load ptr, ptr %6, align 8
  %13 = load ptr, ptr %7, align 8
  %14 = icmp ne ptr %12, %13
  br i1 %14, label %15, label %49

15:                                               ; preds = %4
  %16 = load ptr, ptr %8, align 8
  %17 = getelementptr inbounds %struct.SurfaceDataRasInfo, ptr %16, i32 0, i32 5
  %18 = load i32, ptr %17, align 4
  store i32 %18, ptr %10, align 4
  %19 = load i32, ptr %10, align 4
  %20 = load ptr, ptr %9, align 8
  %21 = getelementptr inbounds %struct.SurfaceDataRasInfo, ptr %20, i32 0, i32 5
  %22 = load i32, ptr %21, align 4
  %23 = icmp ugt i32 %19, %22
  br i1 %23, label %24, label %25

24:                                               ; preds = %15
  store i8 0, ptr %5, align 1
  br label %50

25:                                               ; preds = %15
  store i32 0, ptr %11, align 4
  br label %26

26:                                               ; preds = %44, %25
  %27 = load i32, ptr %11, align 4
  %28 = load i32, ptr %10, align 4
  %29 = icmp ult i32 %27, %28
  br i1 %29, label %30, label %47

30:                                               ; preds = %26
  %31 = load ptr, ptr %6, align 8
  %32 = load i32, ptr %11, align 4
  %33 = zext i32 %32 to i64
  %34 = getelementptr inbounds i32, ptr %31, i64 %33
  %35 = load i32, ptr %34, align 4
  %36 = load ptr, ptr %7, align 8
  %37 = load i32, ptr %11, align 4
  %38 = zext i32 %37 to i64
  %39 = getelementptr inbounds i32, ptr %36, i64 %38
  %40 = load i32, ptr %39, align 4
  %41 = icmp ne i32 %35, %40
  br i1 %41, label %42, label %43

42:                                               ; preds = %30
  store i8 0, ptr %5, align 1
  br label %50

43:                                               ; preds = %30
  br label %44

44:                                               ; preds = %43
  %45 = load i32, ptr %11, align 4
  %46 = add i32 %45, 1
  store i32 %46, ptr %11, align 4
  br label %26, !llvm.loop !55

47:                                               ; preds = %26
  br label %48

48:                                               ; preds = %47
  br label %49

49:                                               ; preds = %48, %4
  store i8 1, ptr %5, align 1
  br label %50

50:                                               ; preds = %49, %42, %24
  %51 = load i8, ptr %5, align 1
  ret i8 %51
}

; Function Attrs: nounwind uwtable
define hidden void @ByteIndexedToByteIndexedConvert(ptr noundef %0, ptr noundef %1, i32 noundef %2, i32 noundef %3, ptr noundef %4, ptr noundef %5, ptr noundef %6, ptr noundef %7) #0 {
  %9 = alloca ptr, align 8
  %10 = alloca ptr, align 8
  %11 = alloca i32, align 4
  %12 = alloca i32, align 4
  %13 = alloca ptr, align 8
  %14 = alloca ptr, align 8
  %15 = alloca ptr, align 8
  %16 = alloca ptr, align 8
  %17 = alloca ptr, align 8
  %18 = alloca ptr, align 8
  %19 = alloca i32, align 4
  %20 = alloca i32, align 4
  %21 = alloca i32, align 4
  %22 = alloca i32, align 4
  %23 = alloca i32, align 4
  %24 = alloca ptr, align 8
  %25 = alloca ptr, align 8
  %26 = alloca ptr, align 8
  %27 = alloca ptr, align 8
  %28 = alloca ptr, align 8
  %29 = alloca ptr, align 8
  %30 = alloca i32, align 4
  %31 = alloca i32, align 4
  %32 = alloca i32, align 4
  %33 = alloca i32, align 4
  %34 = alloca i32, align 4
  %35 = alloca i32, align 4
  %36 = alloca i32, align 4
  store ptr %0, ptr %9, align 8
  store ptr %1, ptr %10, align 8
  store i32 %2, ptr %11, align 4
  store i32 %3, ptr %12, align 4
  store ptr %4, ptr %13, align 8
  store ptr %5, ptr %14, align 8
  store ptr %6, ptr %15, align 8
  store ptr %7, ptr %16, align 8
  %37 = load ptr, ptr %13, align 8
  %38 = getelementptr inbounds %struct.SurfaceDataRasInfo, ptr %37, i32 0, i32 4
  %39 = load i32, ptr %38, align 8
  store i32 %39, ptr %19, align 4
  %40 = load ptr, ptr %14, align 8
  %41 = getelementptr inbounds %struct.SurfaceDataRasInfo, ptr %40, i32 0, i32 4
  %42 = load i32, ptr %41, align 8
  store i32 %42, ptr %20, align 4
  %43 = load ptr, ptr %13, align 8
  %44 = getelementptr inbounds %struct.SurfaceDataRasInfo, ptr %43, i32 0, i32 6
  %45 = load ptr, ptr %44, align 8
  store ptr %45, ptr %17, align 8
  %46 = load ptr, ptr %14, align 8
  %47 = getelementptr inbounds %struct.SurfaceDataRasInfo, ptr %46, i32 0, i32 6
  %48 = load ptr, ptr %47, align 8
  store ptr %48, ptr %18, align 8
  %49 = load ptr, ptr %17, align 8
  %50 = load ptr, ptr %18, align 8
  %51 = load ptr, ptr %13, align 8
  %52 = load ptr, ptr %14, align 8
  %53 = call zeroext i8 @checkSameLut(ptr noundef %49, ptr noundef %50, ptr noundef %51, ptr noundef %52)
  %54 = icmp ne i8 %53, 0
  br i1 %54, label %55, label %78

55:                                               ; preds = %8
  br label %56

56:                                               ; preds = %73, %55
  %57 = load ptr, ptr %10, align 8
  %58 = load ptr, ptr %9, align 8
  %59 = load i32, ptr %11, align 4
  %60 = zext i32 %59 to i64
  call void @llvm.memcpy.p0.p0.i64(ptr align 1 %57, ptr align 1 %58, i64 %60, i1 false)
  %61 = load ptr, ptr %9, align 8
  %62 = ptrtoint ptr %61 to i64
  %63 = load i32, ptr %19, align 4
  %64 = sext i32 %63 to i64
  %65 = add nsw i64 %62, %64
  %66 = inttoptr i64 %65 to ptr
  store ptr %66, ptr %9, align 8
  %67 = load ptr, ptr %10, align 8
  %68 = ptrtoint ptr %67 to i64
  %69 = load i32, ptr %20, align 4
  %70 = sext i32 %69 to i64
  %71 = add nsw i64 %68, %70
  %72 = inttoptr i64 %71 to ptr
  store ptr %72, ptr %10, align 8
  br label %73

73:                                               ; preds = %56
  %74 = load i32, ptr %12, align 4
  %75 = add i32 %74, -1
  store i32 %75, ptr %12, align 4
  %76 = icmp ugt i32 %75, 0
  br i1 %76, label %56, label %77, !llvm.loop !15

77:                                               ; preds = %73
  br label %312

78:                                               ; preds = %8
  br label %79

79:                                               ; preds = %78
  %80 = load ptr, ptr %9, align 8
  store ptr %80, ptr %28, align 8
  %81 = load ptr, ptr %10, align 8
  store ptr %81, ptr %29, align 8
  %82 = load ptr, ptr %13, align 8
  %83 = getelementptr inbounds %struct.SurfaceDataRasInfo, ptr %82, i32 0, i32 4
  %84 = load i32, ptr %83, align 8
  store i32 %84, ptr %30, align 4
  %85 = load ptr, ptr %14, align 8
  %86 = getelementptr inbounds %struct.SurfaceDataRasInfo, ptr %85, i32 0, i32 4
  %87 = load i32, ptr %86, align 8
  store i32 %87, ptr %31, align 4
  br label %88

88:                                               ; preds = %79
  br label %89

89:                                               ; preds = %88
  %90 = load ptr, ptr %14, align 8
  %91 = getelementptr inbounds %struct.SurfaceDataRasInfo, ptr %90, i32 0, i32 0
  %92 = getelementptr inbounds %struct.SurfaceDataBounds, ptr %91, i32 0, i32 1
  %93 = load i32, ptr %92, align 4
  %94 = and i32 %93, 7
  %95 = shl i32 %94, 3
  store i32 %95, ptr %22, align 4
  br label %96

96:                                               ; preds = %89
  %97 = load ptr, ptr %14, align 8
  %98 = getelementptr inbounds %struct.SurfaceDataRasInfo, ptr %97, i32 0, i32 7
  %99 = load ptr, ptr %98, align 8
  store ptr %99, ptr %27, align 8
  %100 = load ptr, ptr %14, align 8
  %101 = getelementptr inbounds %struct.SurfaceDataRasInfo, ptr %100, i32 0, i32 12
  %102 = load i32, ptr %101, align 8
  store i32 %102, ptr %23, align 4
  br label %103

103:                                              ; preds = %96
  %104 = load i32, ptr %11, align 4
  %105 = mul i32 %104, 1
  %106 = load i32, ptr %30, align 4
  %107 = sub i32 %106, %105
  store i32 %107, ptr %30, align 4
  %108 = load i32, ptr %11, align 4
  %109 = mul i32 %108, 1
  %110 = load i32, ptr %31, align 4
  %111 = sub i32 %110, %109
  store i32 %111, ptr %31, align 4
  br label %112

112:                                              ; preds = %306, %103
  %113 = load i32, ptr %11, align 4
  store i32 %113, ptr %32, align 4
  br label %114

114:                                              ; preds = %112
  %115 = load ptr, ptr %14, align 8
  %116 = getelementptr inbounds %struct.SurfaceDataRasInfo, ptr %115, i32 0, i32 8
  %117 = load ptr, ptr %116, align 8
  %118 = load i32, ptr %22, align 4
  %119 = sext i32 %118 to i64
  %120 = getelementptr inbounds i8, ptr %117, i64 %119
  store ptr %120, ptr %24, align 8
  %121 = load ptr, ptr %14, align 8
  %122 = getelementptr inbounds %struct.SurfaceDataRasInfo, ptr %121, i32 0, i32 9
  %123 = load ptr, ptr %122, align 8
  %124 = load i32, ptr %22, align 4
  %125 = sext i32 %124 to i64
  %126 = getelementptr inbounds i8, ptr %123, i64 %125
  store ptr %126, ptr %25, align 8
  %127 = load ptr, ptr %14, align 8
  %128 = getelementptr inbounds %struct.SurfaceDataRasInfo, ptr %127, i32 0, i32 10
  %129 = load ptr, ptr %128, align 8
  %130 = load i32, ptr %22, align 4
  %131 = sext i32 %130 to i64
  %132 = getelementptr inbounds i8, ptr %129, i64 %131
  store ptr %132, ptr %26, align 8
  %133 = load ptr, ptr %14, align 8
  %134 = getelementptr inbounds %struct.SurfaceDataRasInfo, ptr %133, i32 0, i32 0
  %135 = getelementptr inbounds %struct.SurfaceDataBounds, ptr %134, i32 0, i32 0
  %136 = load i32, ptr %135, align 8
  %137 = and i32 %136, 7
  store i32 %137, ptr %21, align 4
  br label %138

138:                                              ; preds = %114
  br label %139

139:                                              ; preds = %286, %138
  br label %140

140:                                              ; preds = %139
  br label %141

141:                                              ; preds = %140
  %142 = load ptr, ptr %17, align 8
  %143 = load ptr, ptr %28, align 8
  %144 = getelementptr inbounds i8, ptr %143, i64 0
  %145 = load i8, ptr %144, align 1
  %146 = zext i8 %145 to i64
  %147 = getelementptr inbounds i32, ptr %142, i64 %146
  %148 = load i32, ptr %147, align 4
  store i32 %148, ptr %36, align 4
  br label %149

149:                                              ; preds = %141
  %150 = load i32, ptr %36, align 4
  %151 = and i32 %150, 255
  store i32 %151, ptr %35, align 4
  %152 = load i32, ptr %36, align 4
  %153 = ashr i32 %152, 8
  %154 = and i32 %153, 255
  store i32 %154, ptr %34, align 4
  %155 = load i32, ptr %36, align 4
  %156 = ashr i32 %155, 16
  %157 = and i32 %156, 255
  store i32 %157, ptr %33, align 4
  br label %158

158:                                              ; preds = %149
  br label %159

159:                                              ; preds = %158
  br label %160

160:                                              ; preds = %159
  %161 = load i32, ptr %33, align 4
  %162 = icmp eq i32 %161, 0
  br i1 %162, label %166, label %163

163:                                              ; preds = %160
  %164 = load i32, ptr %33, align 4
  %165 = icmp eq i32 %164, 255
  br i1 %165, label %166, label %181

166:                                              ; preds = %163, %160
  %167 = load i32, ptr %34, align 4
  %168 = icmp eq i32 %167, 0
  br i1 %168, label %172, label %169

169:                                              ; preds = %166
  %170 = load i32, ptr %34, align 4
  %171 = icmp eq i32 %170, 255
  br i1 %171, label %172, label %181

172:                                              ; preds = %169, %166
  %173 = load i32, ptr %35, align 4
  %174 = icmp eq i32 %173, 0
  br i1 %174, label %178, label %175

175:                                              ; preds = %172
  %176 = load i32, ptr %35, align 4
  %177 = icmp eq i32 %176, 255
  br i1 %177, label %178, label %181

178:                                              ; preds = %175, %172
  %179 = load i32, ptr %23, align 4
  %180 = icmp ne i32 %179, 0
  br i1 %180, label %206, label %181

181:                                              ; preds = %178, %175, %169, %163
  %182 = load ptr, ptr %24, align 8
  %183 = load i32, ptr %21, align 4
  %184 = sext i32 %183 to i64
  %185 = getelementptr inbounds i8, ptr %182, i64 %184
  %186 = load i8, ptr %185, align 1
  %187 = sext i8 %186 to i32
  %188 = load i32, ptr %33, align 4
  %189 = add nsw i32 %188, %187
  store i32 %189, ptr %33, align 4
  %190 = load ptr, ptr %25, align 8
  %191 = load i32, ptr %21, align 4
  %192 = sext i32 %191 to i64
  %193 = getelementptr inbounds i8, ptr %190, i64 %192
  %194 = load i8, ptr %193, align 1
  %195 = sext i8 %194 to i32
  %196 = load i32, ptr %34, align 4
  %197 = add nsw i32 %196, %195
  store i32 %197, ptr %34, align 4
  %198 = load ptr, ptr %26, align 8
  %199 = load i32, ptr %21, align 4
  %200 = sext i32 %199 to i64
  %201 = getelementptr inbounds i8, ptr %198, i64 %200
  %202 = load i8, ptr %201, align 1
  %203 = sext i8 %202 to i32
  %204 = load i32, ptr %35, align 4
  %205 = add nsw i32 %204, %203
  store i32 %205, ptr %35, align 4
  br label %206

206:                                              ; preds = %181, %178
  br label %207

207:                                              ; preds = %206
  %208 = load i32, ptr %33, align 4
  %209 = load i32, ptr %34, align 4
  %210 = or i32 %208, %209
  %211 = load i32, ptr %35, align 4
  %212 = or i32 %210, %211
  %213 = ashr i32 %212, 8
  %214 = icmp ne i32 %213, 0
  br i1 %214, label %215, label %249

215:                                              ; preds = %207
  br label %216

216:                                              ; preds = %215
  %217 = load i32, ptr %33, align 4
  %218 = ashr i32 %217, 8
  %219 = icmp ne i32 %218, 0
  br i1 %219, label %220, label %225

220:                                              ; preds = %216
  %221 = load i32, ptr %33, align 4
  %222 = ashr i32 %221, 31
  %223 = xor i32 %222, -1
  %224 = and i32 %223, 255
  store i32 %224, ptr %33, align 4
  br label %225

225:                                              ; preds = %220, %216
  br label %226

226:                                              ; preds = %225
  br label %227

227:                                              ; preds = %226
  %228 = load i32, ptr %34, align 4
  %229 = ashr i32 %228, 8
  %230 = icmp ne i32 %229, 0
  br i1 %230, label %231, label %236

231:                                              ; preds = %227
  %232 = load i32, ptr %34, align 4
  %233 = ashr i32 %232, 31
  %234 = xor i32 %233, -1
  %235 = and i32 %234, 255
  store i32 %235, ptr %34, align 4
  br label %236

236:                                              ; preds = %231, %227
  br label %237

237:                                              ; preds = %236
  br label %238

238:                                              ; preds = %237
  %239 = load i32, ptr %35, align 4
  %240 = ashr i32 %239, 8
  %241 = icmp ne i32 %240, 0
  br i1 %241, label %242, label %247

242:                                              ; preds = %238
  %243 = load i32, ptr %35, align 4
  %244 = ashr i32 %243, 31
  %245 = xor i32 %244, -1
  %246 = and i32 %245, 255
  store i32 %246, ptr %35, align 4
  br label %247

247:                                              ; preds = %242, %238
  br label %248

248:                                              ; preds = %247
  br label %249

249:                                              ; preds = %248, %207
  br label %250

250:                                              ; preds = %249
  %251 = load ptr, ptr %27, align 8
  %252 = load i32, ptr %33, align 4
  %253 = trunc i32 %252 to i8
  %254 = zext i8 %253 to i32
  %255 = ashr i32 %254, 3
  %256 = shl i32 %255, 10
  %257 = load i32, ptr %34, align 4
  %258 = trunc i32 %257 to i8
  %259 = zext i8 %258 to i32
  %260 = ashr i32 %259, 3
  %261 = shl i32 %260, 5
  %262 = add nsw i32 %256, %261
  %263 = load i32, ptr %35, align 4
  %264 = trunc i32 %263 to i8
  %265 = zext i8 %264 to i32
  %266 = ashr i32 %265, 3
  %267 = add nsw i32 %262, %266
  %268 = sext i32 %267 to i64
  %269 = getelementptr inbounds i8, ptr %251, i64 %268
  %270 = load i8, ptr %269, align 1
  %271 = load ptr, ptr %29, align 8
  %272 = getelementptr inbounds i8, ptr %271, i64 0
  store i8 %270, ptr %272, align 1
  br label %273

273:                                              ; preds = %250
  br label %274

274:                                              ; preds = %273
  %275 = load ptr, ptr %28, align 8
  %276 = ptrtoint ptr %275 to i64
  %277 = add nsw i64 %276, 1
  %278 = inttoptr i64 %277 to ptr
  store ptr %278, ptr %28, align 8
  %279 = load ptr, ptr %29, align 8
  %280 = ptrtoint ptr %279 to i64
  %281 = add nsw i64 %280, 1
  %282 = inttoptr i64 %281 to ptr
  store ptr %282, ptr %29, align 8
  %283 = load i32, ptr %21, align 4
  %284 = add nsw i32 %283, 1
  %285 = and i32 %284, 7
  store i32 %285, ptr %21, align 4
  br label %286

286:                                              ; preds = %274
  %287 = load i32, ptr %32, align 4
  %288 = add i32 %287, -1
  store i32 %288, ptr %32, align 4
  %289 = icmp ugt i32 %288, 0
  br i1 %289, label %139, label %290, !llvm.loop !16

290:                                              ; preds = %286
  %291 = load ptr, ptr %28, align 8
  %292 = ptrtoint ptr %291 to i64
  %293 = load i32, ptr %30, align 4
  %294 = sext i32 %293 to i64
  %295 = add nsw i64 %292, %294
  %296 = inttoptr i64 %295 to ptr
  store ptr %296, ptr %28, align 8
  %297 = load ptr, ptr %29, align 8
  %298 = ptrtoint ptr %297 to i64
  %299 = load i32, ptr %31, align 4
  %300 = sext i32 %299 to i64
  %301 = add nsw i64 %298, %300
  %302 = inttoptr i64 %301 to ptr
  store ptr %302, ptr %29, align 8
  %303 = load i32, ptr %22, align 4
  %304 = add nsw i32 %303, 8
  %305 = and i32 %304, 56
  store i32 %305, ptr %22, align 4
  br label %306

306:                                              ; preds = %290
  %307 = load i32, ptr %12, align 4
  %308 = add i32 %307, -1
  store i32 %308, ptr %12, align 4
  %309 = icmp ugt i32 %308, 0
  br i1 %309, label %112, label %310, !llvm.loop !17

310:                                              ; preds = %306
  br label %311

311:                                              ; preds = %310
  br label %312

312:                                              ; preds = %311, %77
  ret void
}