; Function Attrs: nofree norecurse nosync nounwind memory(readwrite, inaccessiblemem: none) uwtable
define hidden void @ByteIndexedToByteIndexedConvert(ptr noundef %0, ptr noundef %1, i32 noundef %2, i32 noundef %3, ptr nocapture noundef readonly %4, ptr nocapture noundef readonly %5, ptr nocapture readnone %6, ptr nocapture readnone %7) #0 {
  %9 = getelementptr inbounds i8, ptr %4, i64 32
  %10 = load i32, ptr %9, align 8
  %11 = getelementptr inbounds i8, ptr %5, i64 32
  %12 = load i32, ptr %11, align 8
  %13 = getelementptr inbounds i8, ptr %4, i64 40
  %14 = load ptr, ptr %13, align 8
  %15 = getelementptr inbounds i8, ptr %5, i64 40
  %16 = load ptr, ptr %15, align 8
  %.not.i = icmp eq ptr %14, %16
  br i1 %.not.i, label %checkSameLut.exit, label %17

17:                                               ; preds = %8
  %18 = getelementptr inbounds i8, ptr %4, i64 36
  %19 = load i32, ptr %18, align 4
  %20 = getelementptr inbounds i8, ptr %5, i64 36
  %21 = load i32, ptr %20, align 4
  %22 = icmp ugt i32 %19, %21
  br i1 %22, label %.loopexit117, label %.preheader.i

.preheader.i:                                     ; preds = %17
  %.not20.i = icmp eq i32 %19, 0
  br i1 %.not20.i, label %checkSameLut.exit, label %.lr.ph.preheader.i

.lr.ph.preheader.i:                               ; preds = %.preheader.i
  %wide.trip.count.i = zext i32 %19 to i64
  br label %.lr.ph.i

23:                                               ; preds = %.lr.ph.i
  %indvars.iv.next.i = add nuw nsw i64 %indvars.iv.i, 1
  %exitcond.not.i = icmp eq i64 %indvars.iv.next.i, %wide.trip.count.i
  br i1 %exitcond.not.i, label %checkSameLut.exit, label %.lr.ph.i, !llvm.loop !15

.lr.ph.i:                                         ; preds = %23, %.lr.ph.preheader.i
  %indvars.iv.i = phi i64 [ 0, %.lr.ph.preheader.i ], [ %indvars.iv.next.i, %23 ]
  %24 = getelementptr inbounds i32, ptr %14, i64 %indvars.iv.i
  %25 = load i32, ptr %24, align 4
  %26 = getelementptr inbounds i32, ptr %16, i64 %indvars.iv.i
  %27 = load i32, ptr %26, align 4
  %.not16.i = icmp eq i32 %25, %27
  br i1 %.not16.i, label %23, label %.loopexit117

checkSameLut.exit:                                ; preds = %23, %8, %.preheader.i
  %28 = zext i32 %2 to i64
  %29 = sext i32 %10 to i64
  %30 = sext i32 %12 to i64
  br label %31

31:                                               ; preds = %checkSameLut.exit, %31
  %.098 = phi i32 [ %3, %checkSameLut.exit ], [ %38, %31 ]
  %.097 = phi ptr [ %1, %checkSameLut.exit ], [ %37, %31 ]
  %.0 = phi ptr [ %0, %checkSameLut.exit ], [ %34, %31 ]
  tail call void @llvm.memcpy.p0.p0.i64(ptr align 1 %.097, ptr align 1 %.0, i64 %28, i1 false)
  %32 = ptrtoint ptr %.0 to i64
  %33 = add nsw i64 %32, %29
  %34 = inttoptr i64 %33 to ptr
  %35 = ptrtoint ptr %.097 to i64
  %36 = add nsw i64 %35, %30
  %37 = inttoptr i64 %36 to ptr
  %38 = add i32 %.098, -1
  %.not112 = icmp eq i32 %38, 0
  br i1 %.not112, label %.loopexit, label %31, !llvm.loop !16

.loopexit117:                                     ; preds = %.lr.ph.i, %17
  %39 = getelementptr inbounds i8, ptr %5, i64 4
  %40 = load i32, ptr %39, align 4
  %41 = shl i32 %40, 3
  %42 = getelementptr inbounds i8, ptr %5, i64 48
  %43 = load ptr, ptr %42, align 8
  %44 = getelementptr inbounds i8, ptr %5, i64 88
  %45 = load i32, ptr %44, align 8
  %46 = sub i32 %10, %2
  %47 = sub i32 %12, %2
  %48 = sext i32 %46 to i64
  %49 = getelementptr inbounds i8, ptr %5, i64 56
  %50 = getelementptr inbounds i8, ptr %5, i64 64
  %51 = getelementptr inbounds i8, ptr %5, i64 72
  %52 = icmp ne i32 %45, 0
  %53 = sext i32 %47 to i64
  br label %54

54:                                               ; preds = %120, %.loopexit117
  %.0101.in = phi i32 [ %41, %.loopexit117 ], [ %125, %120 ]
  %.199 = phi i32 [ %3, %.loopexit117 ], [ %126, %120 ]
  %.095 = phi ptr [ %0, %.loopexit117 ], [ %122, %120 ]
  %.093 = phi ptr [ %1, %.loopexit117 ], [ %124, %120 ]
  %.0101 = and i32 %.0101.in, 56
  %55 = load ptr, ptr %49, align 8
  %56 = zext nneg i32 %.0101 to i64
  %57 = getelementptr inbounds i8, ptr %55, i64 %56
  %58 = load ptr, ptr %50, align 8
  %59 = getelementptr inbounds i8, ptr %58, i64 %56
  %60 = load ptr, ptr %51, align 8
  %61 = getelementptr inbounds i8, ptr %60, i64 %56
  %62 = load i32, ptr %5, align 8
  br label %63

63:                                               ; preds = %101, %54
  %.0100.in = phi i32 [ %62, %54 ], [ %118, %101 ]
  %.196 = phi ptr [ %.095, %54 ], [ %114, %101 ]
  %.194 = phi ptr [ %.093, %54 ], [ %117, %101 ]
  %.092 = phi i32 [ %2, %54 ], [ %119, %101 ]
  %.0100 = and i32 %.0100.in, 7
  %64 = load i8, ptr %.196, align 1
  %65 = zext i8 %64 to i64
  %66 = getelementptr inbounds i32, ptr %14, i64 %65
  %67 = load i32, ptr %66, align 4
  %68 = and i32 %67, 255
  %69 = lshr i32 %67, 8
  %70 = and i32 %69, 255
  %71 = lshr i32 %67, 16
  %72 = and i32 %71, 255
  %trunc = trunc i32 %71 to i8
  switch i8 %trunc, label %77 [
    i8 -1, label %73
    i8 0, label %73
  ]

73:                                               ; preds = %63, %63
  %trunc115 = trunc i32 %69 to i8
  switch i8 %trunc115, label %77 [
    i8 -1, label %74
    i8 0, label %74
  ]

74:                                               ; preds = %73, %73
  %75 = icmp eq i32 %68, 0
  %76 = icmp eq i32 %68, 255
  %or.cond5 = or i1 %75, %76
  %or.cond7 = select i1 %or.cond5, i1 %52, i1 false
  br i1 %or.cond7, label %91, label %77

77:                                               ; preds = %73, %63, %74
  %78 = zext nneg i32 %.0100 to i64
  %79 = getelementptr inbounds i8, ptr %57, i64 %78
  %80 = load i8, ptr %79, align 1
  %81 = sext i8 %80 to i32
  %82 = add nsw i32 %72, %81
  %83 = getelementptr inbounds i8, ptr %59, i64 %78
  %84 = load i8, ptr %83, align 1
  %85 = sext i8 %84 to i32
  %86 = add nsw i32 %70, %85
  %87 = getelementptr inbounds i8, ptr %61, i64 %78
  %88 = load i8, ptr %87, align 1
  %89 = sext i8 %88 to i32
  %90 = add nsw i32 %68, %89
  br label %91

91:                                               ; preds = %77, %74
  %.089 = phi i32 [ %72, %74 ], [ %82, %77 ]
  %.087 = phi i32 [ %70, %74 ], [ %86, %77 ]
  %.086 = phi i32 [ %68, %74 ], [ %90, %77 ]
  %92 = or i32 %.087, %.089
  %93 = or i32 %92, %.086
  %.not104 = icmp ult i32 %93, 256
  br i1 %.not104, label %101, label %94

94:                                               ; preds = %91
  %95 = tail call i32 @llvm.smax.i32(i32 %.089, i32 0)
  %96 = tail call i32 @llvm.umin.i32(i32 %95, i32 255)
  %97 = tail call i32 @llvm.smax.i32(i32 %.087, i32 0)
  %98 = tail call i32 @llvm.umin.i32(i32 %97, i32 255)
  %.not108 = icmp ult i32 %.086, 256
  br i1 %.not108, label %101, label %99

99:                                               ; preds = %94
  %isnotneg.inv109 = icmp slt i32 %.086, 0
  %100 = select i1 %isnotneg.inv109, i32 0, i32 255
  br label %101

101:                                              ; preds = %91, %94, %99
  %.291 = phi i32 [ %96, %99 ], [ %96, %94 ], [ %.089, %91 ]
  %.2 = phi i32 [ %98, %99 ], [ %98, %94 ], [ %.087, %91 ]
  %.1 = phi i32 [ %100, %99 ], [ %.086, %94 ], [ %.086, %91 ]
  %102 = shl nsw i32 %.291, 7
  %103 = and i32 %102, 31744
  %104 = shl nsw i32 %.2, 2
  %105 = and i32 %104, 992
  %106 = or disjoint i32 %105, %103
  %107 = lshr i32 %.1, 3
  %108 = or disjoint i32 %106, %107
  %109 = zext nneg i32 %108 to i64
  %110 = getelementptr inbounds i8, ptr %43, i64 %109
  %111 = load i8, ptr %110, align 1
  store i8 %111, ptr %.194, align 1
  %112 = ptrtoint ptr %.196 to i64
  %113 = add nsw i64 %112, 1
  %114 = inttoptr i64 %113 to ptr
  %115 = ptrtoint ptr %.194 to i64
  %116 = add nsw i64 %115, 1
  %117 = inttoptr i64 %116 to ptr
  %118 = add nuw nsw i32 %.0100, 1
  %119 = add i32 %.092, -1
  %.not110 = icmp eq i32 %119, 0
  br i1 %.not110, label %120, label %63, !llvm.loop !17

120:                                              ; preds = %101
  %121 = add nsw i64 %113, %48
  %122 = inttoptr i64 %121 to ptr
  %123 = add nsw i64 %116, %53
  %124 = inttoptr i64 %123 to ptr
  %125 = add nuw nsw i32 %.0101, 8
  %126 = add i32 %.199, -1
  %.not111 = icmp eq i32 %126, 0
  br i1 %.not111, label %.loopexit, label %54, !llvm.loop !18

.loopexit:                                        ; preds = %120, %31
  ret void
}